target datalayout = "e-m:e-p270:32:32-p271:32:32-p272:64:64-i64:64-i128:128-f80:128-n8:16:32:64-S128"
target triple = "x86_64-pc-linux-gnu"

%"class.cv::bioinspired::MagnoRetinaFilter" = type <{ ptr, %"class.cv::bioinspired::BasicRetinaFilter", %"class.std::valarray", %"class.std::valarray", %"class.std::valarray", %"class.std::valarray", %"class.std::valarray", %"class.std::valarray", %"class.std::valarray", %"class.std::valarray", ptr, ptr, float, [4 x i8] }>
%"class.cv::bioinspired::BasicRetinaFilter" = type { %"class.cv::bioinspired::TemplateBuffer", %"class.std::valarray", i32, i32, %"class.std::valarray", %"class.std::valarray", %"class.std::valarray", float, float, float, float, float, float, float, float }
%"class.cv::bioinspired::TemplateBuffer" = type { ptr, %"class.std::valarray", i64, i64, i64, i64, i64 }
%"class.std::valarray" = type { i64, ptr }

; Function Attrs: inlinehint mustprogress nounwind uwtable
define linkonce_odr hidden void @_ZNSt16_Array_init_ctorIfLb1EE8_S_do_itEPfS1_f(ptr noundef %0, ptr noundef %1, float noundef %2) #6 comdat align 2 {
  %4 = alloca ptr, align 8
  %5 = alloca ptr, align 8
  %6 = alloca float, align 4
  store ptr %0, ptr %4, align 8, !tbaa !30
  store ptr %1, ptr %5, align 8, !tbaa !30
  store float %2, ptr %6, align 4, !tbaa !27
  br label %7

7:                                                ; preds = %11, %3
  %8 = load ptr, ptr %4, align 8, !tbaa !30
  %9 = load ptr, ptr %5, align 8, !tbaa !30
  %10 = icmp ne ptr %8, %9
  br i1 %10, label %11, label %15

11:                                               ; preds = %7
  %12 = load float, ptr %6, align 4, !tbaa !27
  %13 = load ptr, ptr %4, align 8, !tbaa !30
  %14 = getelementptr inbounds nuw float, ptr %13, i32 1
  store ptr %14, ptr %4, align 8, !tbaa !30
  store float %12, ptr %13, align 4, !tbaa !27
  br label %7, !llvm.loop !57

15:                                               ; preds = %7
  ret void
}

; Function Attrs: inlinehint mustprogress uwtable
define linkonce_odr void @_ZSt25__valarray_fill_constructIfEvPT_S1_S0_(ptr noundef %0, ptr noundef %1, float noundef %2) #5 comdat {
  %4 = alloca ptr, align 8
  %5 = alloca ptr, align 8
  %6 = alloca float, align 4
  store ptr %0, ptr %4, align 8, !tbaa !30
  store ptr %1, ptr %5, align 8, !tbaa !30
  store float %2, ptr %6, align 4, !tbaa !27
  %7 = load ptr, ptr %4, align 8, !tbaa !30
  %8 = load ptr, ptr %5, align 8, !tbaa !30
  %9 = load float, ptr %6, align 4, !tbaa !27
  call void @_ZNSt16_Array_init_ctorIfLb1EE8_S_do_itEPfS1_f(ptr noundef %7, ptr noundef %8, float noundef %9)
  ret void
}

; Function Attrs: inlinehint mustprogress uwtable
define linkonce_odr noalias noundef ptr @_ZSt22__valarray_get_storageIfEPT_m(i64 noundef %0) #5 comdat {
  %2 = alloca i64, align 8
  store i64 %0, ptr %2, align 8, !tbaa !24
  %3 = load i64, ptr %2, align 8, !tbaa !24
  %4 = mul i64 %3, 4
  %5 = call noalias noundef nonnull ptr @_Znwm(i64 noundef %4) #15
  ret ptr %5
}

; Function Attrs: inlinehint mustprogress nounwind uwtable
define linkonce_odr void @_ZSt25__valarray_release_memoryPv(ptr noundef %0) #6 comdat {
  %2 = alloca ptr, align 8
  store ptr %0, ptr %2, align 8, !tbaa !56
  %3 = load ptr, ptr %2, align 8, !tbaa !56
  call void @_ZdlPv(ptr noundef %3) #3
  ret void
}

; Function Attrs: inlinehint mustprogress nounwind uwtable
define linkonce_odr void @_ZSt27__valarray_destroy_elementsIfEvPT_S1_(ptr noundef %0, ptr noundef %1) #6 comdat {
  %3 = alloca ptr, align 8
  %4 = alloca ptr, align 8
  store ptr %0, ptr %3, align 8, !tbaa !30
  store ptr %1, ptr %4, align 8, !tbaa !30
  ret void
}

; Function Attrs: inlinehint mustprogress uwtable
define linkonce_odr hidden void @_ZNSt8valarrayIfE6resizeEmf(ptr noundef nonnull align 8 dereferenceable(16) %0, i64 noundef %1, float noundef %2) #5 comdat align 2 {
  %4 = alloca ptr, align 8
  %5 = alloca i64, align 8
  %6 = alloca float, align 4
  store ptr %0, ptr %4, align 8, !tbaa !23
  store i64 %1, ptr %5, align 8, !tbaa !24
  store float %2, ptr %6, align 4, !tbaa !27
  %7 = load ptr, ptr %4, align 8
  %8 = getelementptr inbounds nuw %"class.std::valarray", ptr %7, i32 0, i32 1
  %9 = load ptr, ptr %8, align 8, !tbaa !26
  %10 = getelementptr inbounds nuw %"class.std::valarray", ptr %7, i32 0, i32 1
  %11 = load ptr, ptr %10, align 8, !tbaa !26
  %12 = getelementptr inbounds nuw %"class.std::valarray", ptr %7, i32 0, i32 0
  %13 = load i64, ptr %12, align 8, !tbaa !25
  %14 = getelementptr inbounds nuw float, ptr %11, i64 %13
  call void @_ZSt27__valarray_destroy_elementsIfEvPT_S1_(ptr noundef %9, ptr noundef %14)
  %15 = getelementptr inbounds nuw %"class.std::valarray", ptr %7, i32 0, i32 0
  %16 = load i64, ptr %15, align 8, !tbaa !25
  %17 = load i64, ptr %5, align 8, !tbaa !24
  %18 = icmp ne i64 %16, %17
  br i1 %18, label %19, label %27

19:                                               ; preds = %3
  %20 = getelementptr inbounds nuw %"class.std::valarray", ptr %7, i32 0, i32 1
  %21 = load ptr, ptr %20, align 8, !tbaa !26
  call void @_ZSt25__valarray_release_memoryPv(ptr noundef %21)
  %22 = load i64, ptr %5, align 8, !tbaa !24
  %23 = getelementptr inbounds nuw %"class.std::valarray", ptr %7, i32 0, i32 0
  store i64 %22, ptr %23, align 8, !tbaa !25
  %24 = load i64, ptr %5, align 8, !tbaa !24
  %25 = call noalias noundef ptr @_ZSt22__valarray_get_storageIfEPT_m(i64 noundef %24)
  %26 = getelementptr inbounds nuw %"class.std::valarray", ptr %7, i32 0, i32 1
  store ptr %25, ptr %26, align 8, !tbaa !26
  br label %27

27:                                               ; preds = %19, %3
  %28 = getelementptr inbounds nuw %"class.std::valarray", ptr %7, i32 0, i32 1
  %29 = load ptr, ptr %28, align 8, !tbaa !26
  %30 = getelementptr inbounds nuw %"class.std::valarray", ptr %7, i32 0, i32 1
  %31 = load ptr, ptr %30, align 8, !tbaa !26
  %32 = load i64, ptr %5, align 8, !tbaa !24
  %33 = getelementptr inbounds nuw float, ptr %31, i64 %32
  %34 = load float, ptr %6, align 4, !tbaa !27
  call void @_ZSt25__valarray_fill_constructIfEvPT_S1_S0_(ptr noundef %29, ptr noundef %33, float noundef %34)
  ret void
}

; Function Attrs: mustprogress uwtable
define hidden void @_ZN2cv11bioinspired17MagnoRetinaFilter6resizeEjj(ptr noundef nonnull align 8 dereferenceable(324) %0, i32 noundef %1, i32 noundef %2) #4 align 2 {
  %4 = alloca ptr, align 8
  %5 = alloca i32, align 4
  %6 = alloca i32, align 4
  store ptr %0, ptr %4, align 8, !tbaa !3
  store i32 %1, ptr %5, align 4, !tbaa !8
  store i32 %2, ptr %6, align 4, !tbaa !8
  %7 = load ptr, ptr %4, align 8
  %8 = getelementptr inbounds i8, ptr %7, i64 8
  %9 = load i32, ptr %5, align 4, !tbaa !8
  %10 = load i32, ptr %6, align 4, !tbaa !8
  call void @_ZN2cv11bioinspired17BasicRetinaFilter6resizeEjj(ptr noundef nonnull align 8 dereferenceable(168) %8, i32 noundef %9, i32 noundef %10)
  %11 = getelementptr inbounds nuw %"class.cv::bioinspired::MagnoRetinaFilter", ptr %7, i32 0, i32 2
  %12 = load i32, ptr %5, align 4, !tbaa !8
  %13 = load i32, ptr %6, align 4, !tbaa !8
  %14 = mul i32 %12, %13
  %15 = zext i32 %14 to i64
  call void @_ZNSt8valarrayIfE6resizeEmf(ptr noundef nonnull align 8 dereferenceable(16) %11, i64 noundef %15, float noundef 0.000000e+00)
  %16 = getelementptr inbounds nuw %"class.cv::bioinspired::MagnoRetinaFilter", ptr %7, i32 0, i32 3
  %17 = load i32, ptr %5, align 4, !tbaa !8
  %18 = load i32, ptr %6, align 4, !tbaa !8
  %19 = mul i32 %17, %18
  %20 = zext i32 %19 to i64
  call void @_ZNSt8valarrayIfE6resizeEmf(ptr noundef nonnull align 8 dereferenceable(16) %16, i64 noundef %20, float noundef 0.000000e+00)
  %21 = getelementptr inbounds nuw %"class.cv::bioinspired::MagnoRetinaFilter", ptr %7, i32 0, i32 4
  %22 = load i32, ptr %5, align 4, !tbaa !8
  %23 = load i32, ptr %6, align 4, !tbaa !8
  %24 = mul i32 %22, %23
  %25 = zext i32 %24 to i64
  call void @_ZNSt8valarrayIfE6resizeEmf(ptr noundef nonnull align 8 dereferenceable(16) %21, i64 noundef %25, float noundef 0.000000e+00)
  %26 = getelementptr inbounds nuw %"class.cv::bioinspired::MagnoRetinaFilter", ptr %7, i32 0, i32 5
  %27 = load i32, ptr %5, align 4, !tbaa !8
  %28 = load i32, ptr %6, align 4, !tbaa !8
  %29 = mul i32 %27, %28
  %30 = zext i32 %29 to i64
  call void @_ZNSt8valarrayIfE6resizeEmf(ptr noundef nonnull align 8 dereferenceable(16) %26, i64 noundef %30, float noundef 0.000000e+00)
  %31 = getelementptr inbounds nuw %"class.cv::bioinspired::MagnoRetinaFilter", ptr %7, i32 0, i32 6
  %32 = load i32, ptr %5, align 4, !tbaa !8
  %33 = load i32, ptr %6, align 4, !tbaa !8
  %34 = mul i32 %32, %33
  %35 = zext i32 %34 to i64
  call void @_ZNSt8valarrayIfE6resizeEmf(ptr noundef nonnull align 8 dereferenceable(16) %31, i64 noundef %35, float noundef 0.000000e+00)
  %36 = getelementptr inbounds nuw %"class.cv::bioinspired::MagnoRetinaFilter", ptr %7, i32 0, i32 7
  %37 = load i32, ptr %5, align 4, !tbaa !8
  %38 = load i32, ptr %6, align 4, !tbaa !8
  %39 = mul i32 %37, %38
  %40 = zext i32 %39 to i64
  call void @_ZNSt8valarrayIfE6resizeEmf(ptr noundef nonnull align 8 dereferenceable(16) %36, i64 noundef %40, float noundef 0.000000e+00)
  %41 = getelementptr inbounds nuw %"class.cv::bioinspired::MagnoRetinaFilter", ptr %7, i32 0, i32 8
  %42 = load i32, ptr %5, align 4, !tbaa !8
  %43 = load i32, ptr %6, align 4, !tbaa !8
  %44 = mul i32 %42, %43
  %45 = zext i32 %44 to i64
  call void @_ZNSt8valarrayIfE6resizeEmf(ptr noundef nonnull align 8 dereferenceable(16) %41, i64 noundef %45, float noundef 0.000000e+00)
  %46 = getelementptr inbounds nuw %"class.cv::bioinspired::MagnoRetinaFilter", ptr %7, i32 0, i32 9
  %47 = load i32, ptr %5, align 4, !tbaa !8
  %48 = load i32, ptr %6, align 4, !tbaa !8
  %49 = mul i32 %47, %48
  %50 = zext i32 %49 to i64
  call void @_ZNSt8valarrayIfE6resizeEmf(ptr noundef nonnull align 8 dereferenceable(16) %46, i64 noundef %50, float noundef 0.000000e+00)
  %51 = getelementptr inbounds i8, ptr %7, i64 8
  %52 = getelementptr inbounds nuw %"class.cv::bioinspired::BasicRetinaFilter", ptr %51, i32 0, i32 0
  %53 = getelementptr inbounds nuw %"class.cv::bioinspired::MagnoRetinaFilter", ptr %7, i32 0, i32 10
  store ptr %52, ptr %53, align 8, !tbaa !12
  %54 = getelementptr inbounds i8, ptr %7, i64 8
  %55 = getelementptr inbounds nuw %"class.cv::bioinspired::BasicRetinaFilter", ptr %54, i32 0, i32 1
  %56 = getelementptr inbounds nuw %"class.cv::bioinspired::MagnoRetinaFilter", ptr %7, i32 0, i32 11
  store ptr %55, ptr %56, align 8, !tbaa !22
  call void @_ZN2cv11bioinspired17MagnoRetinaFilter15clearAllBuffersEv(ptr noundef nonnull align 8 dereferenceable(324) %7)
  ret void
}